; Function Attrs: mustprogress uwtable
define void @_ZN7httplib10ClientImpl3GetERKNSt7__cxx1112basic_stringIcSt11char_traitsIcESaIcEEERKSt8multimapIS6_S6_NS_6detail2ciESaISt4pairIS7_S6_EEESt8functionIFbPKcmEE(ptr noalias sret(%"class.httplib::Result") align 8 %agg.result, ptr noundef nonnull align 8 dereferenceable(1000) %this, ptr noundef nonnull align 8 dereferenceable(32) %path, ptr noundef nonnull align 8 dereferenceable(48) %headers, ptr nocapture noundef %content_receiver) local_unnamed_addr #5 align 2 personality ptr @__gxx_personality_v0 {
entry:
  %agg.tmp = alloca %"class.std::function.50", align 8
  %agg.tmp2 = alloca %"class.std::function.58", align 8
  %agg.tmp3 = alloca %"class.std::function.55", align 8
  call void @llvm.memset.p0.i64(ptr noundef nonnull align 8 dereferenceable(32) %agg.tmp, i8 0, i64 32, i1 false)
  %_M_invoker.i = getelementptr inbounds i8, ptr %agg.tmp2, i64 24
  %_M_invoker2.i = getelementptr inbounds i8, ptr %content_receiver, i64 24
  call void @llvm.memset.p0.i64(ptr noundef nonnull align 8 dereferenceable(24) %agg.tmp2, i8 0, i64 24, i1 false)
  %0 = load ptr, ptr %_M_invoker2.i, align 8
  store ptr %0, ptr %_M_invoker.i, align 8
  %_M_manager.i.i.i = getelementptr inbounds i8, ptr %content_receiver, i64 16
  %1 = load ptr, ptr %_M_manager.i.i.i, align 8
  %tobool.not.i.i.not.i = icmp eq ptr %1, null
  br i1 %tobool.not.i.i.not.i, label %_ZNSt8functionIFbPKcmEEC2EOS3_.exit, label %if.then.i

if.then.i:                                        ; preds = %entry
  %_M_manager.i.i = getelementptr inbounds i8, ptr %agg.tmp2, i64 16
  call void @llvm.memcpy.p0.p0.i64(ptr noundef nonnull align 8 dereferenceable(16) %agg.tmp2, ptr noundef nonnull align 8 dereferenceable(16) %content_receiver, i64 16, i1 false)
  store ptr %1, ptr %_M_manager.i.i, align 8
  tail call void @llvm.memset.p0.i64(ptr noundef nonnull align 8 dereferenceable(16) %_M_manager.i.i.i, i8 0, i64 16, i1 false)
  br label %_ZNSt8functionIFbPKcmEEC2EOS3_.exit

_ZNSt8functionIFbPKcmEEC2EOS3_.exit:              ; preds = %entry, %if.then.i
  call void @llvm.memset.p0.i64(ptr noundef nonnull align 8 dereferenceable(32) %agg.tmp3, i8 0, i64 32, i1 false)
  invoke void @_ZN7httplib10ClientImpl3GetERKNSt7__cxx1112basic_stringIcSt11char_traitsIcESaIcEEERKSt8multimapIS6_S6_NS_6detail2ciESaISt4pairIS7_S6_EEESt8functionIFbRKNS_8ResponseEEESI_IFbPKcmEESI_IFbmmEE(ptr sret(%"class.httplib::Result") align 8 %agg.result, ptr noundef nonnull align 8 dereferenceable(1000) %this, ptr noundef nonnull align 8 dereferenceable(32) %path, ptr noundef nonnull align 8 dereferenceable(48) %headers, ptr noundef nonnull %agg.tmp, ptr noundef nonnull %agg.tmp2, ptr noundef nonnull %agg.tmp3)
          to label %invoke.cont unwind label %lpad

invoke.cont:                                      ; preds = %_ZNSt8functionIFbPKcmEEC2EOS3_.exit
  %_M_manager.i.i1 = getelementptr inbounds i8, ptr %agg.tmp3, i64 16
  %2 = load ptr, ptr %_M_manager.i.i1, align 8
  %tobool.not.i.i = icmp eq ptr %2, null
  br i1 %tobool.not.i.i, label %_ZNSt8functionIFbmmEED2Ev.exit, label %if.then.i.i

if.then.i.i:                                      ; preds = %invoke.cont
  %call.i.i = invoke noundef zeroext i1 %2(ptr noundef nonnull align 8 dereferenceable(16) %agg.tmp3, ptr noundef nonnull align 8 dereferenceable(16) %agg.tmp3, i32 noundef 3)
          to label %_ZNSt8functionIFbmmEED2Ev.exit unwind label %terminate.lpad.i.i

terminate.lpad.i.i:                               ; preds = %if.then.i.i
  %3 = landingpad { ptr, i32 }
          catch ptr null
  %4 = extractvalue { ptr, i32 } %3, 0
  call void @__clang_call_terminate(ptr %4) #40
  unreachable

_ZNSt8functionIFbmmEED2Ev.exit:                   ; preds = %invoke.cont, %if.then.i.i
  %_M_manager.i.i2 = getelementptr inbounds i8, ptr %agg.tmp2, i64 16
  %5 = load ptr, ptr %_M_manager.i.i2, align 8
  %tobool.not.i.i3 = icmp eq ptr %5, null
  br i1 %tobool.not.i.i3, label %_ZNSt8functionIFbPKcmEED2Ev.exit, label %if.then.i.i4

if.then.i.i4:                                     ; preds = %_ZNSt8functionIFbmmEED2Ev.exit
  %call.i.i5 = invoke noundef zeroext i1 %5(ptr noundef nonnull align 8 dereferenceable(16) %agg.tmp2, ptr noundef nonnull align 8 dereferenceable(16) %agg.tmp2, i32 noundef 3)
          to label %_ZNSt8functionIFbPKcmEED2Ev.exit unwind label %terminate.lpad.i.i6

terminate.lpad.i.i6:                              ; preds = %if.then.i.i4
  %6 = landingpad { ptr, i32 }
          catch ptr null
  %7 = extractvalue { ptr, i32 } %6, 0
  call void @__clang_call_terminate(ptr %7) #40
  unreachable

_ZNSt8functionIFbPKcmEED2Ev.exit:                 ; preds = %_ZNSt8functionIFbmmEED2Ev.exit, %if.then.i.i4
  %_M_manager.i.i7 = getelementptr inbounds i8, ptr %agg.tmp, i64 16
  %8 = load ptr, ptr %_M_manager.i.i7, align 8
  %tobool.not.i.i8 = icmp eq ptr %8, null
  br i1 %tobool.not.i.i8, label %_ZNSt8functionIFbRKN7httplib8ResponseEEED2Ev.exit, label %if.then.i.i9

if.then.i.i9:                                     ; preds = %_ZNSt8functionIFbPKcmEED2Ev.exit
  %call.i.i10 = invoke noundef zeroext i1 %8(ptr noundef nonnull align 8 dereferenceable(16) %agg.tmp, ptr noundef nonnull align 8 dereferenceable(16) %agg.tmp, i32 noundef 3)
          to label %_ZNSt8functionIFbRKN7httplib8ResponseEEED2Ev.exit unwind label %terminate.lpad.i.i11

terminate.lpad.i.i11:                             ; preds = %if.then.i.i9
  %9 = landingpad { ptr, i32 }
          catch ptr null
  %10 = extractvalue { ptr, i32 } %9, 0
  call void @__clang_call_terminate(ptr %10) #40
  unreachable

_ZNSt8functionIFbRKN7httplib8ResponseEEED2Ev.exit: ; preds = %_ZNSt8functionIFbPKcmEED2Ev.exit, %if.then.i.i9
  ret void

lpad:                                             ; preds = %_ZNSt8functionIFbPKcmEEC2EOS3_.exit
  %11 = landingpad { ptr, i32 }
          cleanup
  %_M_manager.i.i12 = getelementptr inbounds i8, ptr %agg.tmp3, i64 16
  %12 = load ptr, ptr %_M_manager.i.i12, align 8
  %tobool.not.i.i13 = icmp eq ptr %12, null
  br i1 %tobool.not.i.i13, label %_ZNSt8functionIFbmmEED2Ev.exit17, label %if.then.i.i14

if.then.i.i14:                                    ; preds = %lpad
  %call.i.i15 = invoke noundef zeroext i1 %12(ptr noundef nonnull align 8 dereferenceable(16) %agg.tmp3, ptr noundef nonnull align 8 dereferenceable(16) %agg.tmp3, i32 noundef 3)
          to label %_ZNSt8functionIFbmmEED2Ev.exit17 unwind label %terminate.lpad.i.i16

terminate.lpad.i.i16:                             ; preds = %if.then.i.i14
  %13 = landingpad { ptr, i32 }
          catch ptr null
  %14 = extractvalue { ptr, i32 } %13, 0
  call void @__clang_call_terminate(ptr %14) #40
  unreachable

_ZNSt8functionIFbmmEED2Ev.exit17:                 ; preds = %lpad, %if.then.i.i14
  %_M_manager.i.i18 = getelementptr inbounds i8, ptr %agg.tmp2, i64 16
  %15 = load ptr, ptr %_M_manager.i.i18, align 8
  %tobool.not.i.i19 = icmp eq ptr %15, null
  br i1 %tobool.not.i.i19, label %_ZNSt8functionIFbPKcmEED2Ev.exit23, label %if.then.i.i20

if.then.i.i20:                                    ; preds = %_ZNSt8functionIFbmmEED2Ev.exit17
  %call.i.i21 = invoke noundef zeroext i1 %15(ptr noundef nonnull align 8 dereferenceable(16) %agg.tmp2, ptr noundef nonnull align 8 dereferenceable(16) %agg.tmp2, i32 noundef 3)
          to label %_ZNSt8functionIFbPKcmEED2Ev.exit23 unwind label %terminate.lpad.i.i22

terminate.lpad.i.i22:                             ; preds = %if.then.i.i20
  %16 = landingpad { ptr, i32 }
          catch ptr null
  %17 = extractvalue { ptr, i32 } %16, 0
  call void @__clang_call_terminate(ptr %17) #40
  unreachable

_ZNSt8functionIFbPKcmEED2Ev.exit23:               ; preds = %_ZNSt8functionIFbmmEED2Ev.exit17, %if.then.i.i20
  %_M_manager.i.i24 = getelementptr inbounds i8, ptr %agg.tmp, i64 16
  %18 = load ptr, ptr %_M_manager.i.i24, align 8
  %tobool.not.i.i25 = icmp eq ptr %18, null
  br i1 %tobool.not.i.i25, label %_ZNSt8functionIFbRKN7httplib8ResponseEEED2Ev.exit29, label %if.then.i.i26

if.then.i.i26:                                    ; preds = %_ZNSt8functionIFbPKcmEED2Ev.exit23
  %call.i.i27 = invoke noundef zeroext i1 %18(ptr noundef nonnull align 8 dereferenceable(16) %agg.tmp, ptr noundef nonnull align 8 dereferenceable(16) %agg.tmp, i32 noundef 3)
          to label %_ZNSt8functionIFbRKN7httplib8ResponseEEED2Ev.exit29 unwind label %terminate.lpad.i.i28

terminate.lpad.i.i28:                             ; preds = %if.then.i.i26
  %19 = landingpad { ptr, i32 }
          catch ptr null
  %20 = extractvalue { ptr, i32 } %19, 0
  call void @__clang_call_terminate(ptr %20) #40
  unreachable

_ZNSt8functionIFbRKN7httplib8ResponseEEED2Ev.exit29: ; preds = %_ZNSt8functionIFbPKcmEED2Ev.exit23, %if.then.i.i26
  resume { ptr, i32 } %11
}